target datalayout = "e-m:e-p270:32:32-p271:32:32-p272:64:64-i64:64-i128:128-f80:128-n8:16:32:64-S128"
target triple = "x86_64-pc-linux-gnu"

%struct.jpeg_compress_struct = type { ptr, ptr, ptr, ptr, i32, i32, ptr, i32, i32, i32, i32, double, i32, i32, i32, ptr, [4 x ptr], [4 x ptr], [4 x ptr], [16 x i8], [16 x i8], [16 x i8], i32, ptr, i32, i32, i32, i32, i32, i32, i32, i32, i32, i8, i8, i8, i16, i16, i32, i32, i32, i32, i32, i32, i32, [4 x ptr], i32, i32, i32, [10 x i32], i32, i32, i32, i32, ptr, ptr, ptr, ptr, ptr, ptr, ptr, ptr, ptr, ptr, i32 }
%struct.jpeg_comp_master = type { ptr, ptr, ptr, i32, i32, i32 }
%struct.jpeg_error_mgr = type { ptr, ptr, ptr, ptr, ptr, i32, %union.anon, i32, i64, ptr, i32, ptr, i32, i32 }
%union.anon = type { [8 x i32], [48 x i8] }
%struct.jpeg_memory_mgr = type { ptr, ptr, ptr, ptr, ptr, ptr, ptr, ptr, ptr, ptr, ptr, i64, i64 }
%struct.my_main_controller = type { %struct.jpeg_c_main_controller, i32, i32, i32, i32, [10 x ptr] }
%struct.jpeg_c_main_controller = type { ptr, ptr, ptr, ptr }
%struct.jpeg_component_info = type { i32, i32, i32, i32, i32, i32, i32, i32, i32, i32, i32, i32, i32, i32, i32, i32, i32, i32, i32, ptr, ptr }

; Function Attrs: nounwind uwtable
define void @jinit_c_main_controller(ptr noundef %0, i32 noundef %1) #0 {
  %3 = alloca ptr, align 8
  %4 = alloca i32, align 4
  %5 = alloca ptr, align 8
  %6 = alloca i32, align 4
  %7 = alloca ptr, align 8
  %8 = alloca i32, align 4
  %9 = alloca i32, align 4
  store ptr %0, ptr %3, align 8, !tbaa !3
  store i32 %1, ptr %4, align 4, !tbaa !8
  call void @llvm.lifetime.start.p0(i64 8, ptr %5) #3
  call void @llvm.lifetime.start.p0(i64 4, ptr %6) #3
  call void @llvm.lifetime.start.p0(i64 8, ptr %7) #3
  call void @llvm.lifetime.start.p0(i64 4, ptr %8) #3
  %10 = load ptr, ptr %3, align 8, !tbaa !3
  %11 = getelementptr inbounds nuw %struct.jpeg_compress_struct, ptr %10, i32 0, i32 54
  %12 = load ptr, ptr %11, align 8, !tbaa !10
  %13 = getelementptr inbounds nuw %struct.jpeg_comp_master, ptr %12, i32 0, i32 5
  %14 = load i32, ptr %13, align 8, !tbaa !27
  %15 = icmp ne i32 %14, 0
  %16 = select i1 %15, i32 1, i32 8
  store i32 %16, ptr %8, align 4, !tbaa !8
  %17 = load ptr, ptr %3, align 8, !tbaa !3
  %18 = getelementptr inbounds nuw %struct.jpeg_compress_struct, ptr %17, i32 0, i32 54
  %19 = load ptr, ptr %18, align 8, !tbaa !10
  %20 = getelementptr inbounds nuw %struct.jpeg_comp_master, ptr %19, i32 0, i32 5
  %21 = load i32, ptr %20, align 8, !tbaa !27
  %22 = icmp ne i32 %21, 0
  br i1 %22, label %23, label %53

23:                                               ; preds = %2
  %24 = load ptr, ptr %3, align 8, !tbaa !3
  %25 = getelementptr inbounds nuw %struct.jpeg_compress_struct, ptr %24, i32 0, i32 12
  %26 = load i32, ptr %25, align 8, !tbaa !29
  %27 = icmp sgt i32 %26, 8
  br i1 %27, label %33, label %28

28:                                               ; preds = %23
  %29 = load ptr, ptr %3, align 8, !tbaa !3
  %30 = getelementptr inbounds nuw %struct.jpeg_compress_struct, ptr %29, i32 0, i32 12
  %31 = load i32, ptr %30, align 8, !tbaa !29
  %32 = icmp slt i32 %31, 2
  br i1 %32, label %33, label %52

33:                                               ; preds = %28, %23
  %34 = load ptr, ptr %3, align 8, !tbaa !3
  %35 = getelementptr inbounds nuw %struct.jpeg_compress_struct, ptr %34, i32 0, i32 0
  %36 = load ptr, ptr %35, align 8, !tbaa !30
  %37 = getelementptr inbounds nuw %struct.jpeg_error_mgr, ptr %36, i32 0, i32 5
  store i32 15, ptr %37, align 8, !tbaa !31
  %38 = load ptr, ptr %3, align 8, !tbaa !3
  %39 = getelementptr inbounds nuw %struct.jpeg_compress_struct, ptr %38, i32 0, i32 12
  %40 = load i32, ptr %39, align 8, !tbaa !29
  %41 = load ptr, ptr %3, align 8, !tbaa !3
  %42 = getelementptr inbounds nuw %struct.jpeg_compress_struct, ptr %41, i32 0, i32 0
  %43 = load ptr, ptr %42, align 8, !tbaa !30
  %44 = getelementptr inbounds nuw %struct.jpeg_error_mgr, ptr %43, i32 0, i32 6
  %45 = getelementptr inbounds [8 x i32], ptr %44, i64 0, i64 0
  store i32 %40, ptr %45, align 4, !tbaa !35
  %46 = load ptr, ptr %3, align 8, !tbaa !3
  %47 = getelementptr inbounds nuw %struct.jpeg_compress_struct, ptr %46, i32 0, i32 0
  %48 = load ptr, ptr %47, align 8, !tbaa !30
  %49 = getelementptr inbounds nuw %struct.jpeg_error_mgr, ptr %48, i32 0, i32 0
  %50 = load ptr, ptr %49, align 8, !tbaa !36
  %51 = load ptr, ptr %3, align 8, !tbaa !3
  call void %50(ptr noundef %51)
  br label %52

52:                                               ; preds = %33, %28
  br label %78

53:                                               ; preds = %2
  %54 = load ptr, ptr %3, align 8, !tbaa !3
  %55 = getelementptr inbounds nuw %struct.jpeg_compress_struct, ptr %54, i32 0, i32 12
  %56 = load i32, ptr %55, align 8, !tbaa !29
  %57 = icmp ne i32 %56, 8
  br i1 %57, label %58, label %77

58:                                               ; preds = %53
  %59 = load ptr, ptr %3, align 8, !tbaa !3
  %60 = getelementptr inbounds nuw %struct.jpeg_compress_struct, ptr %59, i32 0, i32 0
  %61 = load ptr, ptr %60, align 8, !tbaa !30
  %62 = getelementptr inbounds nuw %struct.jpeg_error_mgr, ptr %61, i32 0, i32 5
  store i32 15, ptr %62, align 8, !tbaa !31
  %63 = load ptr, ptr %3, align 8, !tbaa !3
  %64 = getelementptr inbounds nuw %struct.jpeg_compress_struct, ptr %63, i32 0, i32 12
  %65 = load i32, ptr %64, align 8, !tbaa !29
  %66 = load ptr, ptr %3, align 8, !tbaa !3
  %67 = getelementptr inbounds nuw %struct.jpeg_compress_struct, ptr %66, i32 0, i32 0
  %68 = load ptr, ptr %67, align 8, !tbaa !30
  %69 = getelementptr inbounds nuw %struct.jpeg_error_mgr, ptr %68, i32 0, i32 6
  %70 = getelementptr inbounds [8 x i32], ptr %69, i64 0, i64 0
  store i32 %65, ptr %70, align 4, !tbaa !35
  %71 = load ptr, ptr %3, align 8, !tbaa !3
  %72 = getelementptr inbounds nuw %struct.jpeg_compress_struct, ptr %71, i32 0, i32 0
  %73 = load ptr, ptr %72, align 8, !tbaa !30
  %74 = getelementptr inbounds nuw %struct.jpeg_error_mgr, ptr %73, i32 0, i32 0
  %75 = load ptr, ptr %74, align 8, !tbaa !36
  %76 = load ptr, ptr %3, align 8, !tbaa !3
  call void %75(ptr noundef %76)
  br label %77

77:                                               ; preds = %58, %53
  br label %78

78:                                               ; preds = %77, %52
  %79 = load ptr, ptr %3, align 8, !tbaa !3
  %80 = getelementptr inbounds nuw %struct.jpeg_compress_struct, ptr %79, i32 0, i32 1
  %81 = load ptr, ptr %80, align 8, !tbaa !37
  %82 = getelementptr inbounds nuw %struct.jpeg_memory_mgr, ptr %81, i32 0, i32 0
  %83 = load ptr, ptr %82, align 8, !tbaa !38
  %84 = load ptr, ptr %3, align 8, !tbaa !3
  %85 = call ptr %83(ptr noundef %84, i32 noundef 1, i64 noundef 128)
  store ptr %85, ptr %5, align 8, !tbaa !40
  %86 = load ptr, ptr %5, align 8, !tbaa !40
  call void @llvm.memset.p0.i64(ptr align 8 %86, i8 0, i64 128, i1 false)
  %87 = load ptr, ptr %5, align 8, !tbaa !40
  %88 = load ptr, ptr %3, align 8, !tbaa !3
  %89 = getelementptr inbounds nuw %struct.jpeg_compress_struct, ptr %88, i32 0, i32 55
  store ptr %87, ptr %89, align 8, !tbaa !41
  %90 = load ptr, ptr %5, align 8, !tbaa !40
  %91 = getelementptr inbounds nuw %struct.my_main_controller, ptr %90, i32 0, i32 0
  %92 = getelementptr inbounds nuw %struct.jpeg_c_main_controller, ptr %91, i32 0, i32 0
  store ptr @start_pass_main, ptr %92, align 8, !tbaa !42
  %93 = load ptr, ptr %3, align 8, !tbaa !3
  %94 = getelementptr inbounds nuw %struct.jpeg_compress_struct, ptr %93, i32 0, i32 24
  %95 = load i32, ptr %94, align 8, !tbaa !45
  %96 = icmp ne i32 %95, 0
  br i1 %96, label %97, label %98

97:                                               ; preds = %78
  store i32 1, ptr %9, align 4
  br label %152

98:                                               ; preds = %78
  %99 = load i32, ptr %4, align 4, !tbaa !8
  %100 = icmp ne i32 %99, 0
  br i1 %100, label %101, label %112

101:                                              ; preds = %98
  %102 = load ptr, ptr %3, align 8, !tbaa !3
  %103 = getelementptr inbounds nuw %struct.jpeg_compress_struct, ptr %102, i32 0, i32 0
  %104 = load ptr, ptr %103, align 8, !tbaa !30
  %105 = getelementptr inbounds nuw %struct.jpeg_error_mgr, ptr %104, i32 0, i32 5
  store i32 4, ptr %105, align 8, !tbaa !31
  %106 = load ptr, ptr %3, align 8, !tbaa !3
  %107 = getelementptr inbounds nuw %struct.jpeg_compress_struct, ptr %106, i32 0, i32 0
  %108 = load ptr, ptr %107, align 8, !tbaa !30
  %109 = getelementptr inbounds nuw %struct.jpeg_error_mgr, ptr %108, i32 0, i32 0
  %110 = load ptr, ptr %109, align 8, !tbaa !36
  %111 = load ptr, ptr %3, align 8, !tbaa !3
  call void %110(ptr noundef %111)
  br label %151

112:                                              ; preds = %98
  store i32 0, ptr %6, align 4, !tbaa !8
  %113 = load ptr, ptr %3, align 8, !tbaa !3
  %114 = getelementptr inbounds nuw %struct.jpeg_compress_struct, ptr %113, i32 0, i32 15
  %115 = load ptr, ptr %114, align 8, !tbaa !46
  store ptr %115, ptr %7, align 8, !tbaa !40
  br label %116

116:                                              ; preds = %145, %112
  %117 = load i32, ptr %6, align 4, !tbaa !8
  %118 = load ptr, ptr %3, align 8, !tbaa !3
  %119 = getelementptr inbounds nuw %struct.jpeg_compress_struct, ptr %118, i32 0, i32 13
  %120 = load i32, ptr %119, align 4, !tbaa !47
  %121 = icmp slt i32 %117, %120
  br i1 %121, label %122, label %150

122:                                              ; preds = %116
  %123 = load ptr, ptr %3, align 8, !tbaa !3
  %124 = getelementptr inbounds nuw %struct.jpeg_compress_struct, ptr %123, i32 0, i32 1
  %125 = load ptr, ptr %124, align 8, !tbaa !37
  %126 = getelementptr inbounds nuw %struct.jpeg_memory_mgr, ptr %125, i32 0, i32 2
  %127 = load ptr, ptr %126, align 8, !tbaa !48
  %128 = load ptr, ptr %3, align 8, !tbaa !3
  %129 = load ptr, ptr %7, align 8, !tbaa !40
  %130 = getelementptr inbounds nuw %struct.jpeg_component_info, ptr %129, i32 0, i32 7
  %131 = load i32, ptr %130, align 4, !tbaa !49
  %132 = load i32, ptr %8, align 4, !tbaa !8
  %133 = mul i32 %131, %132
  %134 = load ptr, ptr %7, align 8, !tbaa !40
  %135 = getelementptr inbounds nuw %struct.jpeg_component_info, ptr %134, i32 0, i32 3
  %136 = load i32, ptr %135, align 4, !tbaa !51
  %137 = load i32, ptr %8, align 4, !tbaa !8
  %138 = mul nsw i32 %136, %137
  %139 = call ptr %127(ptr noundef %128, i32 noundef 1, i32 noundef %133, i32 noundef %138)
  %140 = load ptr, ptr %5, align 8, !tbaa !40
  %141 = getelementptr inbounds nuw %struct.my_main_controller, ptr %140, i32 0, i32 5
  %142 = load i32, ptr %6, align 4, !tbaa !8
  %143 = sext i32 %142 to i64
  %144 = getelementptr inbounds [10 x ptr], ptr %141, i64 0, i64 %143
  store ptr %139, ptr %144, align 8, !tbaa !52
  br label %145

145:                                              ; preds = %122
  %146 = load i32, ptr %6, align 4, !tbaa !8
  %147 = add nsw i32 %146, 1
  store i32 %147, ptr %6, align 4, !tbaa !8
  %148 = load ptr, ptr %7, align 8, !tbaa !40
  %149 = getelementptr inbounds nuw %struct.jpeg_component_info, ptr %148, i32 1
  store ptr %149, ptr %7, align 8, !tbaa !40
  br label %116, !llvm.loop !53

150:                                              ; preds = %116
  br label %151

151:                                              ; preds = %150, %101
  store i32 0, ptr %9, align 4
  br label %152

152:                                              ; preds = %151, %97
  call void @llvm.lifetime.end.p0(i64 4, ptr %8) #3
  call void @llvm.lifetime.end.p0(i64 8, ptr %7) #3
  call void @llvm.lifetime.end.p0(i64 4, ptr %6) #3
  call void @llvm.lifetime.end.p0(i64 8, ptr %5) #3
  %153 = load i32, ptr %9, align 4
  switch i32 %153, label %155 [
    i32 0, label %154
    i32 1, label %154
  ]

154:                                              ; preds = %152, %152
  ret void

155:                                              ; preds = %152
  unreachable
}