; Function Attrs: nounwind uwtable
define void @jinit_c_main_controller(ptr noundef %0, i32 noundef %1) local_unnamed_addr #0 {
  %3 = getelementptr inbounds nuw i8, ptr %0, i64 432
  %4 = load ptr, ptr %3, align 8, !tbaa !3
  %5 = getelementptr inbounds nuw i8, ptr %4, i64 32
  %6 = load i32, ptr %5, align 8, !tbaa !24
  %.not = icmp eq i32 %6, 0
  %7 = getelementptr inbounds nuw i8, ptr %0, i64 72
  %8 = load i32, ptr %7, align 8, !tbaa !26
  br i1 %.not, label %11, label %9

9:                                                ; preds = %2
  %10 = add i32 %8, -9
  %or.cond = icmp ult i32 %10, -7
  br i1 %or.cond, label %.sink.split, label %17

11:                                               ; preds = %2
  %.not40 = icmp eq i32 %8, 8
  br i1 %.not40, label %17, label %.sink.split

.sink.split:                                      ; preds = %11, %9
  %12 = load ptr, ptr %0, align 8, !tbaa !27
  %13 = getelementptr inbounds nuw i8, ptr %12, i64 40
  store i32 15, ptr %13, align 8, !tbaa !28
  %14 = getelementptr inbounds nuw i8, ptr %12, i64 44
  store i32 %8, ptr %14, align 4, !tbaa !32
  %15 = load ptr, ptr %0, align 8, !tbaa !27
  %16 = load ptr, ptr %15, align 8, !tbaa !33
  tail call void %16(ptr noundef nonnull %0) #2
  br label %17

17:                                               ; preds = %.sink.split, %9, %11
  %18 = getelementptr inbounds nuw i8, ptr %0, i64 8
  %19 = load ptr, ptr %18, align 8, !tbaa !34
  %20 = load ptr, ptr %19, align 8, !tbaa !35
  %21 = tail call ptr %20(ptr noundef nonnull %0, i32 noundef 1, i64 noundef 128) #2
  %22 = getelementptr inbounds nuw i8, ptr %21, i64 8
  tail call void @llvm.memset.p0.i64(ptr noundef nonnull align 8 dereferenceable(128) %22, i8 0, i64 120, i1 false)
  %23 = getelementptr inbounds nuw i8, ptr %0, i64 440
  store ptr %21, ptr %23, align 8, !tbaa !37
  store ptr @start_pass_main, ptr %21, align 8, !tbaa !38
  %24 = getelementptr inbounds nuw i8, ptr %0, i64 256
  %25 = load i32, ptr %24, align 8, !tbaa !41
  %.not41 = icmp eq i32 %25, 0
  br i1 %.not41, label %26, label %.loopexit

26:                                               ; preds = %17
  %.not42 = icmp eq i32 %1, 0
  br i1 %.not42, label %31, label %27

27:                                               ; preds = %26
  %28 = load ptr, ptr %0, align 8, !tbaa !27
  %29 = getelementptr inbounds nuw i8, ptr %28, i64 40
  store i32 4, ptr %29, align 8, !tbaa !28
  %30 = load ptr, ptr %28, align 8, !tbaa !33
  tail call void %30(ptr noundef nonnull %0) #2
  br label %.loopexit

31:                                               ; preds = %26
  %32 = getelementptr inbounds nuw i8, ptr %0, i64 76
  %33 = load i32, ptr %32, align 4, !tbaa !42
  %34 = icmp sgt i32 %33, 0
  br i1 %34, label %.lr.ph, label %.loopexit

.lr.ph:                                           ; preds = %31
  %35 = getelementptr inbounds nuw i8, ptr %0, i64 88
  %36 = load ptr, ptr %35, align 8, !tbaa !43
  %37 = select i1 %.not, i32 3, i32 0
  %38 = getelementptr inbounds nuw i8, ptr %21, i64 48
  br label %39

39:                                               ; preds = %.lr.ph, %39
  %indvars.iv = phi i64 [ 0, %.lr.ph ], [ %indvars.iv.next, %39 ]
  %.03843 = phi ptr [ %36, %.lr.ph ], [ %51, %39 ]
  %40 = load ptr, ptr %18, align 8, !tbaa !34
  %41 = getelementptr inbounds nuw i8, ptr %40, i64 16
  %42 = load ptr, ptr %41, align 8, !tbaa !44
  %43 = getelementptr inbounds nuw i8, ptr %.03843, i64 28
  %44 = load i32, ptr %43, align 4, !tbaa !45
  %45 = shl i32 %44, %37
  %46 = getelementptr inbounds nuw i8, ptr %.03843, i64 12
  %47 = load i32, ptr %46, align 4, !tbaa !47
  %48 = shl i32 %47, %37
  %49 = tail call ptr %42(ptr noundef nonnull %0, i32 noundef 1, i32 noundef %45, i32 noundef %48) #2
  %50 = getelementptr inbounds nuw [10 x ptr], ptr %38, i64 0, i64 %indvars.iv
  store ptr %49, ptr %50, align 8, !tbaa !48
  %indvars.iv.next = add nuw nsw i64 %indvars.iv, 1
  %51 = getelementptr inbounds nuw i8, ptr %.03843, i64 96
  %52 = load i32, ptr %32, align 4, !tbaa !42
  %53 = sext i32 %52 to i64
  %54 = icmp slt i64 %indvars.iv.next, %53
  br i1 %54, label %39, label %.loopexit, !llvm.loop !49

.loopexit:                                        ; preds = %39, %31, %27, %17
  ret void
}